target datalayout = "e-m:e-p270:32:32-p271:32:32-p272:64:64-i64:64-i128:128-f80:128-n8:16:32:64-S128"
target triple = "x86_64-pc-linux-gnu"

%struct.LogicalRepCtxStruct = type { i32, i32, i64, [0 x %struct.LogicalRepWorker] }
%struct.LogicalRepWorker = type { i32, i64, i8, i16, ptr, i32, i32, i32, i32, i8, i64, i8, ptr, i32, i8, i64, i64, i64, i64, i64 }

@max_logical_replication_workers = dso_local global i32 4, align 4
@LogicalRepCtx = internal global ptr null, align 8

; Function Attrs: nounwind uwtable
define dso_local i32 @logicalrep_sync_worker_count(i32 noundef %0) #0 {
  %2 = alloca i32, align 4
  %3 = alloca i32, align 4
  %4 = alloca i32, align 4
  %5 = alloca ptr, align 8
  store i32 %0, ptr %2, align 4
  call void @llvm.lifetime.start.p0(i64 4, ptr %3) #9
  call void @llvm.lifetime.start.p0(i64 4, ptr %4) #9
  store i32 0, ptr %4, align 4
  store i32 0, ptr %3, align 4
  br label %6

6:                                                ; preds = %35, %1
  %7 = load i32, ptr %3, align 4
  %8 = load i32, ptr @max_logical_replication_workers, align 4
  %9 = icmp slt i32 %7, %8
  br i1 %9, label %10, label %38

10:                                               ; preds = %6
  call void @llvm.lifetime.start.p0(i64 8, ptr %5) #9
  %11 = load ptr, ptr @LogicalRepCtx, align 8
  %12 = getelementptr inbounds nuw %struct.LogicalRepCtxStruct, ptr %11, i32 0, i32 3
  %13 = load i32, ptr %3, align 4
  %14 = sext i32 %13 to i64
  %15 = getelementptr inbounds [0 x %struct.LogicalRepWorker], ptr %12, i64 0, i64 %14
  store ptr %15, ptr %5, align 8
  %16 = load ptr, ptr %5, align 8
  %17 = getelementptr inbounds nuw %struct.LogicalRepWorker, ptr %16, i32 0, i32 2
  %18 = load i8, ptr %17, align 8, !range !4, !noundef !5
  %19 = trunc i8 %18 to i1
  br i1 %19, label %20, label %34

20:                                               ; preds = %10
  %21 = load ptr, ptr %5, align 8
  %22 = getelementptr inbounds nuw %struct.LogicalRepWorker, ptr %21, i32 0, i32 0
  %23 = load i32, ptr %22, align 8
  %24 = icmp eq i32 %23, 1
  br i1 %24, label %25, label %34

25:                                               ; preds = %20
  %26 = load ptr, ptr %5, align 8
  %27 = getelementptr inbounds nuw %struct.LogicalRepWorker, ptr %26, i32 0, i32 7
  %28 = load i32, ptr %27, align 8
  %29 = load i32, ptr %2, align 4
  %30 = icmp eq i32 %28, %29
  br i1 %30, label %31, label %34

31:                                               ; preds = %25
  %32 = load i32, ptr %4, align 4
  %33 = add i32 %32, 1
  store i32 %33, ptr %4, align 4
  br label %34

34:                                               ; preds = %31, %25, %20, %10
  call void @llvm.lifetime.end.p0(i64 8, ptr %5) #9
  br label %35

35:                                               ; preds = %34
  %36 = load i32, ptr %3, align 4
  %37 = add i32 %36, 1
  store i32 %37, ptr %3, align 4
  br label %6, !llvm.loop !11

38:                                               ; preds = %6
  %39 = load i32, ptr %4, align 4
  call void @llvm.lifetime.end.p0(i64 4, ptr %4) #9
  call void @llvm.lifetime.end.p0(i64 4, ptr %3) #9
  ret i32 %39
}