; Function Attrs: nofree norecurse nosync nounwind memory(read, inaccessiblemem: none) uwtable
define dso_local i32 @logicalrep_sync_worker_count(i32 noundef %0) local_unnamed_addr #0 {
  %2 = load i32, ptr @max_logical_replication_workers, align 4
  %3 = icmp sgt i32 %2, 0
  br i1 %3, label %.lr.ph, label %._crit_edge

.lr.ph:                                           ; preds = %1
  %4 = load ptr, ptr @LogicalRepCtx, align 8
  %5 = getelementptr inbounds nuw i8, ptr %4, i64 16
  %wide.trip.count = zext nneg i32 %2 to i64
  br label %6

6:                                                ; preds = %.lr.ph, %19
  %indvars.iv = phi i64 [ 0, %.lr.ph ], [ %indvars.iv.next, %19 ]
  %.089 = phi i32 [ 0, %.lr.ph ], [ %.1, %19 ]
  %7 = getelementptr inbounds nuw [0 x %struct.LogicalRepWorker], ptr %5, i64 0, i64 %indvars.iv
  %8 = getelementptr inbounds nuw i8, ptr %7, i64 16
  %9 = load i8, ptr %8, align 8, !range !4, !noundef !5
  %10 = trunc nuw i8 %9 to i1
  br i1 %10, label %11, label %19

11:                                               ; preds = %6
  %12 = load i32, ptr %7, align 8
  %13 = icmp eq i32 %12, 1
  br i1 %13, label %14, label %19

14:                                               ; preds = %11
  %15 = getelementptr inbounds nuw i8, ptr %7, i64 40
  %16 = load i32, ptr %15, align 8
  %17 = icmp eq i32 %16, %0
  %18 = zext i1 %17 to i32
  %spec.select = add i32 %.089, %18
  br label %19

19:                                               ; preds = %14, %11, %6
  %.1 = phi i32 [ %.089, %11 ], [ %.089, %6 ], [ %spec.select, %14 ]
  %indvars.iv.next = add nuw nsw i64 %indvars.iv, 1
  %exitcond.not = icmp eq i64 %indvars.iv.next, %wide.trip.count
  br i1 %exitcond.not, label %._crit_edge, label %6, !llvm.loop !10

._crit_edge:                                      ; preds = %19, %1
  %.08.lcssa = phi i32 [ 0, %1 ], [ %.1, %19 ]
  ret i32 %.08.lcssa
}